(dp0
Vhead
p1
(dp2
Vthreshold
p3
F0.0
sVfeathering
p4
F0.25
sVautozero
p5
I01
sVtracker
p6
Varea
p7
sVsaturation_correction
p8
I00
ssVright
p9
(dp10
Vthreshold
p11
F0.0
sVfeathering
p12
F0.25
sVautozero
p13
I01
sVtracker
p14
Vedge
p15
sVsaturation_correction
p16
I00
ssVn_edges_max
p17
I1
sVuse_gui
p18
I01
sVabdomen
p19
(dp20
Vthreshold
p21
F0.0
sVfeathering
p22
F0.25
sVautozero
p23
I01
sVtracker
p24
Vtip
p25
sVsaturation_correction
p26
I00
ssVfilenameBackground
p27
V~/Benifly.png
p28
sVimage_topic
p29
V/camera/image_raw
p30
sVrc_background
p31
F1000.0
sVwingbeat_max
p32
I220
sVwingbeat_min
p33
I180
sVaux
p34
(dp35
Vtracker
p36
Vintensity
p37
sVsaturation_correction
p38
I00
ssVleft
p39
(dp40
Vthreshold
p41
F0.0
sVfeathering
p42
F0.25
sVautozero
p43
I01
sVtracker
p44
Vedge
p45
sVsaturation_correction
p46
I00
ssVn_queue_images
p47
I2
sVgui
p48
(dp49
Vhead
p50
(dp51
Vradius_outer
p52
F57.48912940721924
sVstabilize
p53
I00
sVtrack
p54
I01
sVsubtract_bg
p55
I00
sVangle_lo
p56
F-0.7128903630945356
sVhinge
p57
(dp58
Vy
p59
F110.0
sVx
p60
F252.0
ssVangle_hi
p61
F0.7128903630945356
sVradius_inner
p62
F33.13608305156178
ssVright
p63
(dp64
Vradius_outer
p65
F78.15993015858741
sVstabilize
p66
I00
sVtrack
p67
I01
sVsubtract_bg
p68
I00
sVangle_lo
p69
F0.18952308557754804
sVhinge
p70
(dp71
Vy
p72
F157.26709533750642
sVx
p73
F299.5379597558509
ssVangle_hi
p74
F1.8835651150449433
sVradius_inner
p75
F25.647184496123568
ssVwindows
p76
I00
sVabdomen
p77
(dp78
Vradius_outer
p79
F10.0
sVstabilize
p80
I00
sVtrack
p81
I00
sVsubtract_bg
p82
I00
sVangle_lo
p83
F2.3562
sVhinge
p84
(dp85
Vy
p86
F183.0
sVx
p87
F253.0
ssVangle_hi
p88
F3.927
sVradius_inner
p89
F5.0
ssVsymmetric
p90
I01
sVaux
p91
(dp92
Vradius1
p93
F30.0
sVradius2
p94
F20.0
sVangle
p95
F0.0
sVcenter
p96
(dp97
Vy
p98
F145.0
sVx
p99
F101.0
ssVtrack
p100
I00
sVsubtract_bg
p101
I00
ssVleft
p102
(dp103
Vradius_outer
p104
F78.15993015858741
sVstabilize
p105
I00
sVtrack
p106
I01
sVsubtract_bg
p107
I00
sVangle_lo
p108
F-1.8835651150449433
sVhinge
p109
(dp110
Vy
p111
F158.55152459335622
sVx
p112
F205.7746240788185
ssVangle_hi
p113
F-0.18952308557754804
sVradius_inner
p114
F25.647184496123568
ssVaxis
p115
(dp116
Vtrack
p117
I00
sVpt2
p118
(dp119
Vy
p120
I150
sVx
p121
I175
ssVpt1
p122
(dp123
Vy
p124
I50
sVx
p125
I175
ssssVscale_image
p126
F1.0
s.