(dp0
S'head'
p1
(dp2
S'threshold'
p3
F0.0
sS'feathering'
p4
F0.0
sS'autozero'
p5
I00
sS'tracker'
p6
S'tip'
p7
sS'saturation_correction'
p8
I00
ssS'right'
p9
(dp10
g3
F0.0
sg4
F0.25
sg5
I01
sg6
S'edge'
p11
sg8
I00
ssS'n_edges_max'
p12
I1
sS'use_gui'
p13
I01
sS'abdomen'
p14
(dp15
g3
F0.0
sg4
F0.25
sg5
I01
sg6
g7
sg8
I00
ssS'filenameBackground'
p16
S'~/kinefly.png'
p17
sS'image_topic'
p18
S'/camera/image_raw'
p19
sS'rc_background'
p20
F1000.0
sS'wingbeat_max'
p21
I220
sS'wingbeat_min'
p22
I180
sS'aux'
p23
(dp24
g6
S'intensity'
p25
sg8
I00
ssS'left'
p26
(dp27
g3
F0.0
sg4
F0.25
sg5
I01
sg6
g11
sg8
I00
ssS'n_queue_images'
p28
I2
sS'gui'
p29
(dp30
g1
(dp31
S'radius_outer'
p32
F53.150729063673246
sS'stabilize'
p33
I01
sS'track'
p34
I01
sS'subtract_bg'
p35
I00
sS'angle_lo'
p36
F-0.683550526028033
sS'hinge'
p37
(dp38
S'y'
p39
F107.0
sS'x'
p40
F252.0
ssS'angle_hi'
p41
F0.683550526028033
sS'radius_inner'
p42
F38.05259518088089
ssg9
(dp43
g32
F60.46452975575402
sg33
I00
sg34
I01
sg35
I00
sg36
F0.3611148249244369
sg37
(dp44
g39
F155.77605750622064
sg40
F289.65496267625105
ssg41
F1.869639683971526
sg42
F22.360679774997898
ssS'windows'
p45
I00
sg14
(dp46
g32
F10.0
sg33
I00
sg34
I00
sg35
I00
sg36
F2.3562
sg37
(dp47
g39
F192.0
sg40
F249.0
ssg41
F3.927
sg42
F5.0
ssS'symmetric'
p48
I01
sg23
(dp49
S'radius1'
p50
F30.0
sS'radius2'
p51
F20.0
sS'angle'
p52
F0.0
sS'center'
p53
(dp54
g39
F149.0
sg40
F113.0
ssg34
I01
sg35
I00
ssg26
(dp55
g32
F60.46452975575402
sg33
I00
sg34
I01
sg35
I00
sg36
F-1.869639683971526
sg37
(dp56
g39
F153.0
sg40
F211.0
ssg41
F-0.3611148249244369
sg42
F22.360679774997898
ssS'axis'
p57
(dp58
g34
I00
sS'pt2'
p59
(dp60
g39
I150
sg40
I175
ssS'pt1'
p61
(dp62
g39
I50
sg40
I175
ssssS'scale_image'
p63
F1.0
s.