(dp0
S'head'
p1
(dp2
S'threshold'
p3
F0.0
sS'feathering'
p4
F0.0
sS'autozero'
p5
I00
sS'tracker'
p6
S'tip'
p7
sS'saturation_correction'
p8
I00
ssS'right'
p9
(dp10
g3
F0.0
sg4
F0.25
sg5
I01
sg6
S'edge'
p11
sg8
I00
ssS'n_edges_max'
p12
I1
sS'use_gui'
p13
I01
sS'filenameBackground'
p14
S'~/kinefly.png'
p15
sS'abdomen'
p16
(dp17
g3
F0.0
sg4
F0.25
sg5
I01
sg6
g7
sg8
I00
ssS'image_topic'
p18
S'/camera/image_raw'
p19
sS'rc_background'
p20
F1000.0
sS'wingbeat_max'
p21
I220
sS'wingbeat_min'
p22
I180
sS'aux'
p23
(dp24
g6
S'intensity'
p25
sg8
I00
ssS'left'
p26
(dp27
g3
F0.0
sg4
F0.25
sg5
I01
sg6
g11
sg8
I00
ssS'n_queue_images'
p28
I2
sS'gui'
p29
(dp30
g1
(dp31
S'radius_outer'
p32
F55.44366510251645
sS'stabilize'
p33
I00
sS'track'
p34
I01
sS'subtract_bg'
p35
I00
sS'angle_lo'
p36
F-0.8567056281827385
sS'hinge'
p37
(dp38
S'y'
p39
F110.0
sS'x'
p40
F251.0
ssS'angle_hi'
p41
F0.12659212727997193
sS'radius_inner'
p42
F38.05259518088089
ssg9
(dp43
g32
F78.28420452973043
sg33
I00
sg34
I01
sg35
I00
sg36
F0.47879203125211145
sg37
(dp44
g39
F158.48130936860136
sg40
F289.9338894905844
ssg41
F2.1343413246026834
sg42
F29.07009526736819
ssS'windows'
p45
I00
sg16
(dp46
g32
F47.4236228055175
sg33
I00
sg34
I00
sg35
I00
sg36
F2.4272504388998826
sg37
(dp47
g39
F175.0
sg40
F251.0
ssg41
F3.8559348682797037
sg42
F38.3275357934736
ssS'symmetric'
p48
I00
sg23
(dp49
S'radius1'
p50
F30.0
sS'radius2'
p51
F20.0
sS'angle'
p52
F0.0
sS'center'
p53
(dp54
g39
F131.0
sg40
F252.0
ssg34
I00
sg35
I00
ssS'axis'
p55
(dp56
g34
I00
sS'pt2'
p57
(dp58
g39
I150
sg40
I175
ssS'pt1'
p59
(dp60
g39
I50
sg40
I175
sssg26
(dp61
g32
F81.0059547884364
sg33
I00
sg34
I01
sg35
I00
sg36
F-1.6788985181409917
sg37
(dp62
g39
F158.48130936860142
sg40
F212.06611050941555
ssg41
F-0.2503174712676284
sg42
F32.18371429748162
sssS'scale_image'
p63
F1.0
s.